; Function Attrs: nounwind uwtable
define void @Hop_ObjPrintEqn(ptr noundef captures(none) %0, ptr noundef %1, ptr noundef captures(none) %2, i32 noundef %3) local_unnamed_addr #3 {
  %5 = ptrtoint ptr %1 to i64
  %6 = trunc i64 %5 to i32
  %7 = and i32 %6, 1
  %8 = and i64 %5, -2
  %9 = inttoptr i64 %8 to ptr
  %10 = getelementptr i8, ptr %9, i64 32
  %.val40 = load i32, ptr %10, align 8
  %11 = and i32 %.val40, 7
  switch i32 %11, label %19 [
    i32 1, label %12
    i32 2, label %15
  ]

12:                                               ; preds = %4
  %13 = xor i32 %7, 1
  %14 = tail call i32 (ptr, ptr, ...) @fprintf(ptr noundef %0, ptr noundef nonnull @.str, i32 noundef %13) #16
  br label %68

15:                                               ; preds = %4
  %.not35 = icmp eq i32 %7, 0
  %16 = select i1 %.not35, ptr @.str.3, ptr @.str.2
  %17 = load ptr, ptr %9, align 8, !tbaa !15
  %18 = tail call i32 (ptr, ptr, ...) @fprintf(ptr noundef %0, ptr noundef nonnull @.str.1, ptr noundef nonnull %16, ptr noundef %17) #16
  br label %68

19:                                               ; preds = %4
  %20 = getelementptr inbounds nuw i8, ptr %2, i64 4
  %21 = load i32, ptr %20, align 4, !tbaa !33
  %22 = add i32 %3, 1
  %.not.not.i = icmp sgt i32 %21, %3
  br i1 %.not.not.i, label %Vec_VecExpand.exit, label %23

23:                                               ; preds = %19
  %24 = load i32, ptr %2, align 8, !tbaa !32
  %.not.i.not.i = icmp sgt i32 %24, %3
  br i1 %.not.i.not.i, label %Vec_PtrGrow.exit.i, label %25

25:                                               ; preds = %23
  %26 = getelementptr inbounds nuw i8, ptr %2, i64 8
  %27 = load ptr, ptr %26, align 8, !tbaa !20
  %.not9.i.i = icmp eq ptr %27, null
  %28 = sext i32 %22 to i64
  %29 = shl nsw i64 %28, 3
  br i1 %.not9.i.i, label %32, label %30

30:                                               ; preds = %25
  %31 = tail call ptr @realloc(ptr noundef nonnull %27, i64 noundef %29) #14
  %.pre.pre.i = load i32, ptr %20, align 4, !tbaa !33
  br label %34

32:                                               ; preds = %25
  %33 = tail call noalias ptr @malloc(i64 noundef %29) #15
  br label %34

34:                                               ; preds = %32, %30
  %.pre.i = phi i32 [ %.pre.pre.i, %30 ], [ %21, %32 ]
  %35 = phi ptr [ %31, %30 ], [ %33, %32 ]
  store ptr %35, ptr %26, align 8, !tbaa !20
  store i32 %22, ptr %2, align 8, !tbaa !32
  br label %Vec_PtrGrow.exit.i

Vec_PtrGrow.exit.i:                               ; preds = %34, %23
  %36 = phi i32 [ %21, %23 ], [ %.pre.i, %34 ]
  %.not12.i = icmp sgt i32 %36, %3
  br i1 %.not12.i, label %._crit_edge.i, label %.lr.ph.i

.lr.ph.i:                                         ; preds = %Vec_PtrGrow.exit.i
  %37 = getelementptr inbounds nuw i8, ptr %2, i64 8
  %38 = sext i32 %36 to i64
  br label %39

39:                                               ; preds = %39, %.lr.ph.i
  %indvars.iv.i = phi i64 [ %38, %.lr.ph.i ], [ %indvars.iv.next.i, %39 ]
  %calloc.i.i = tail call noalias noundef dereferenceable_or_null(16) ptr @calloc(i64 1, i64 16)
  %40 = load ptr, ptr %37, align 8, !tbaa !35
  %41 = getelementptr inbounds ptr, ptr %40, i64 %indvars.iv.i
  store ptr %calloc.i.i, ptr %41, align 8, !tbaa !21
  %indvars.iv.next.i = add nsw i64 %indvars.iv.i, 1
  %lftr.wideiv.i = trunc i64 %indvars.iv.next.i to i32
  %exitcond.not.i = icmp eq i32 %22, %lftr.wideiv.i
  br i1 %exitcond.not.i, label %._crit_edge.i, label %39, !llvm.loop !36

._crit_edge.i:                                    ; preds = %39, %Vec_PtrGrow.exit.i
  store i32 %22, ptr %20, align 4, !tbaa !33
  br label %Vec_VecExpand.exit

Vec_VecExpand.exit:                               ; preds = %19, %._crit_edge.i
  %42 = getelementptr i8, ptr %2, i64 8
  %.val41 = load ptr, ptr %42, align 8, !tbaa !35
  %43 = sext i32 %3 to i64
  %44 = getelementptr inbounds ptr, ptr %.val41, i64 %43
  %45 = load ptr, ptr %44, align 8, !tbaa !21
  %46 = getelementptr inbounds nuw i8, ptr %45, i64 4
  store i32 0, ptr %46, align 4, !tbaa !17
  tail call void @Hop_ObjCollectMulti_rec(ptr noundef %9, ptr noundef %9, ptr noundef %45)
  %47 = icmp eq i32 %3, 0
  %48 = select i1 %47, ptr @.str.3, ptr @.str.5
  %fputs = tail call i32 @fputs(ptr nonnull %48, ptr %0)
  %.val3743 = load i32, ptr %46, align 4, !tbaa !17
  %49 = icmp sgt i32 %.val3743, 0
  br i1 %49, label %.lr.ph, label %.critedge

.lr.ph:                                           ; preds = %Vec_VecExpand.exit
  %50 = getelementptr i8, ptr %45, i64 8
  %51 = and i64 %5, 1
  %.not34 = icmp eq i32 %7, 0
  %52 = select i1 %.not34, ptr @.str.8, ptr @.str.7
  br label %53

53:                                               ; preds = %.lr.ph, %64
  %indvars.iv = phi i64 [ 0, %.lr.ph ], [ %indvars.iv.next, %64 ]
  %.val38 = load ptr, ptr %50, align 8, !tbaa !20
  %54 = getelementptr inbounds nuw ptr, ptr %.val38, i64 %indvars.iv
  %55 = load ptr, ptr %54, align 8, !tbaa !21
  %56 = ptrtoint ptr %55 to i64
  %57 = xor i64 %51, %56
  %58 = inttoptr i64 %57 to ptr
  tail call void @Hop_ObjPrintEqn(ptr noundef %0, ptr noundef %58, ptr noundef %2, i32 noundef %22)
  %.val = load i32, ptr %46, align 4, !tbaa !17
  %59 = add nsw i32 %.val, -1
  %60 = sext i32 %59 to i64
  %61 = icmp slt i64 %indvars.iv, %60
  br i1 %61, label %62, label %64

62:                                               ; preds = %53
  %63 = tail call i32 (ptr, ptr, ...) @fprintf(ptr noundef %0, ptr noundef nonnull @.str.6, ptr noundef nonnull %52) #16
  %.val37.pre = load i32, ptr %46, align 4, !tbaa !17
  br label %64

64:                                               ; preds = %53, %62
  %.val37 = phi i32 [ %.val, %53 ], [ %.val37.pre, %62 ]
  %indvars.iv.next = add nuw nsw i64 %indvars.iv, 1
  %65 = sext i32 %.val37 to i64
  %66 = icmp slt i64 %indvars.iv.next, %65
  br i1 %66, label %53, label %.critedge, !llvm.loop !37

.critedge:                                        ; preds = %64, %Vec_VecExpand.exit
  %67 = select i1 %47, ptr @.str.3, ptr @.str.9
  %fputs33 = tail call i32 @fputs(ptr nonnull %67, ptr %0)
  br label %68

68:                                               ; preds = %.critedge, %15, %12
  ret void
}